target datalayout = "e-m:e-p270:32:32-p271:32:32-p272:64:64-i64:64-i128:128-f80:128-n8:16:32:64-S128"
target triple = "x86_64-pc-linux-gnu"

%struct.DirStack = type { i32, ptr }

; Function Attrs: mustprogress nounwind uwtable
define noundef i32 @_Z9DS_SearchP8DirStack9Directive(ptr noundef %0, i32 noundef %1) #1 {
  %3 = alloca ptr, align 8
  %4 = alloca i32, align 4
  %5 = alloca ptr, align 8
  store ptr %0, ptr %3, align 8, !tbaa !275
  store i32 %1, ptr %4, align 4, !tbaa !4
  call void @llvm.lifetime.start.p0(i64 8, ptr %5) #12
  %6 = load ptr, ptr %3, align 8, !tbaa !275
  store ptr %6, ptr %5, align 8, !tbaa !275
  br label %7

7:                                                ; preds = %18, %2
  %8 = load ptr, ptr %5, align 8, !tbaa !275
  %9 = icmp ne ptr %8, null
  br i1 %9, label %10, label %16

10:                                               ; preds = %7
  %11 = load ptr, ptr %5, align 8, !tbaa !275
  %12 = getelementptr inbounds nuw %struct.DirStack, ptr %11, i32 0, i32 0
  %13 = load i32, ptr %12, align 8, !tbaa !284
  %14 = load i32, ptr %4, align 4, !tbaa !4
  %15 = icmp ne i32 %13, %14
  br label %16

16:                                               ; preds = %10, %7
  %17 = phi i1 [ false, %7 ], [ %15, %10 ]
  br i1 %17, label %18, label %22

18:                                               ; preds = %16
  %19 = load ptr, ptr %5, align 8, !tbaa !275
  %20 = getelementptr inbounds nuw %struct.DirStack, ptr %19, i32 0, i32 1
  %21 = load ptr, ptr %20, align 8, !tbaa !281
  store ptr %21, ptr %5, align 8, !tbaa !275
  br label %7, !llvm.loop !285

22:                                               ; preds = %16
  %23 = load ptr, ptr %5, align 8, !tbaa !275
  %24 = icmp ne ptr %23, null
  %25 = zext i1 %24 to i32
  call void @llvm.lifetime.end.p0(i64 8, ptr %5) #12
  ret i32 %25
}