; Function Attrs: mustprogress nofree norecurse nosync nounwind willreturn memory(read, inaccessiblemem: none) uwtable
define noundef range(i32 0, 2) i32 @_Z9DS_SearchP8DirStack9Directive(ptr noundef readonly %0, i32 noundef %1) local_unnamed_addr #17 {
  %.not8 = icmp eq ptr %0, null
  br i1 %.not8, label %.critedge, label %.lr.ph

.lr.ph:                                           ; preds = %2, %4
  %.05 = phi ptr [ %6, %4 ], [ %0, %2 ]
  %3 = load i32, ptr %.05, align 8, !tbaa !74
  %.not = icmp eq i32 %3, %1
  br i1 %.not, label %.critedge, label %4

4:                                                ; preds = %.lr.ph
  %5 = getelementptr inbounds nuw i8, ptr %.05, i64 8
  %6 = load ptr, ptr %5, align 8, !tbaa !71
  %.not9 = icmp eq ptr %6, null
  br i1 %.not9, label %.critedge, label %.lr.ph, !llvm.loop !75

.critedge:                                        ; preds = %.lr.ph, %4, %2
  %.lcssa = phi i32 [ 0, %2 ], [ 0, %4 ], [ 1, %.lr.ph ]
  ret i32 %.lcssa
}